; Function Attrs: mustprogress nounwind uwtable
define hidden void @_ZN11OpenImageIO6v3_1_010TIFFOutputD2Ev(ptr noundef nonnull align 8 dereferenceable(296) %0) unnamed_addr #7 align 2 personality ptr @__gxx_personality_v0 {
  %2 = getelementptr inbounds nuw i8, ptr %0, i64 184
  %3 = load ptr, ptr %2, align 8, !tbaa !30
  %.not.i.i = icmp eq ptr %3, null
  br i1 %.not.i.i, label %_ZN11OpenImageIO6v3_1_010TIFFOutput8closetifEv.exit.i, label %4

4:                                                ; preds = %1
  %5 = invoke noundef zeroext i1 @_ZN11OpenImageIO6v3_1_010TIFFOutput15write_exif_dataEv(ptr noundef nonnull align 8 dereferenceable(296) %0)
          to label %.noexc unwind label %25

.noexc:                                           ; preds = %4
  %6 = load ptr, ptr %2, align 8, !tbaa !30
  invoke void @TIFFClose(ptr noundef %6)
          to label %_ZN11OpenImageIO6v3_1_010TIFFOutput8closetifEv.exit.i unwind label %25

_ZN11OpenImageIO6v3_1_010TIFFOutput8closetifEv.exit.i: ; preds = %.noexc, %1
  store ptr null, ptr %2, align 8, !tbaa !30
  %7 = getelementptr inbounds nuw i8, ptr %0, i64 248
  store i32 0, ptr %7, align 8, !tbaa !66
  %8 = getelementptr inbounds nuw i8, ptr %0, i64 260
  store i32 8, ptr %8, align 4, !tbaa !67
  %9 = getelementptr inbounds nuw i8, ptr %0, i64 264
  store i32 1, ptr %9, align 8, !tbaa !68
  %10 = getelementptr inbounds nuw i8, ptr %0, i64 268
  store i32 2, ptr %10, align 4, !tbaa !69
  %11 = getelementptr inbounds nuw i8, ptr %0, i64 272
  store i32 32, ptr %11, align 8, !tbaa !70
  %12 = getelementptr inbounds nuw i8, ptr %0, i64 276
  store i32 6, ptr %12, align 4, !tbaa !71
  %13 = getelementptr inbounds nuw i8, ptr %0, i64 284
  store i32 0, ptr %13, align 4, !tbaa !72
  %14 = getelementptr inbounds nuw i8, ptr %0, i64 288
  store i8 0, ptr %14, align 8, !tbaa !73
  %15 = getelementptr inbounds nuw i8, ptr %0, i64 289
  store i8 0, ptr %15, align 1, !tbaa !74
  invoke void @_ZN11OpenImageIO6v3_1_011ImageOutput13ioproxy_clearEv(ptr noundef nonnull align 8 dereferenceable(296) %0)
          to label %_ZN11OpenImageIO6v3_1_010TIFFOutput5closeEv.exit unwind label %25

_ZN11OpenImageIO6v3_1_010TIFFOutput5closeEv.exit: ; preds = %_ZN11OpenImageIO6v3_1_010TIFFOutput8closetifEv.exit.i
  %16 = getelementptr inbounds nuw i8, ptr %0, i64 216
  tail call void @_ZN11OpenImageIO6v3_1_05TimerD2Ev(ptr noundef nonnull align 8 dereferenceable(32) %16) #32
  %17 = getelementptr inbounds nuw i8, ptr %0, i64 192
  %18 = load ptr, ptr %17, align 8, !tbaa !75
  %.not.i.i.i = icmp eq ptr %18, null
  br i1 %.not.i.i.i, label %_ZNSt6vectorIhSaIhEED2Ev.exit, label %19

19:                                               ; preds = %_ZN11OpenImageIO6v3_1_010TIFFOutput5closeEv.exit
  %20 = getelementptr inbounds nuw i8, ptr %0, i64 208
  %21 = load ptr, ptr %20, align 8, !tbaa !76
  %22 = ptrtoint ptr %21 to i64
  %23 = ptrtoint ptr %18 to i64
  %24 = sub i64 %22, %23
  tail call void @_ZdlPvm(ptr noundef nonnull %18, i64 noundef %24) #33
  br label %_ZNSt6vectorIhSaIhEED2Ev.exit

_ZNSt6vectorIhSaIhEED2Ev.exit:                    ; preds = %_ZN11OpenImageIO6v3_1_010TIFFOutput5closeEv.exit, %19
  tail call void @_ZN11OpenImageIO6v3_1_011ImageOutputD2Ev(ptr noundef nonnull align 8 dereferenceable(184) %0) #32
  ret void

25:                                               ; preds = %_ZN11OpenImageIO6v3_1_010TIFFOutput8closetifEv.exit.i, %.noexc, %4
  %26 = landingpad { ptr, i32 }
          catch ptr null
  %27 = extractvalue { ptr, i32 } %26, 0
  tail call void @__clang_call_terminate(ptr %27) #35
  unreachable
}